; Function Attrs: mustprogress nounwind uwtable
define hidden void @_ZN6hermes2vm6GCBase18runtimeWillExecuteEv(ptr noundef nonnull align 8 dereferenceable(741) %this) local_unnamed_addr #0 align 2 {
entry:
  %recordGcStats_ = getelementptr inbounds i8, ptr %this, i64 128
  %0 = load i8, ptr %recordGcStats_, align 8
  %1 = and i8 %0, 1
  %tobool.not = icmp eq i8 %1, 0
  br i1 %tobool.not, label %if.end, label %land.lhs.true

land.lhs.true:                                    ; preds = %entry
  %execStartTimeRecorded_ = getelementptr inbounds i8, ptr %this, i64 131
  %2 = load i8, ptr %execStartTimeRecorded_, align 1
  %3 = and i8 %2, 1
  %tobool2.not = icmp eq i8 %3, 0
  br i1 %tobool2.not, label %if.then, label %if.end

if.then:                                          ; preds = %land.lhs.true
  %call = tail call i64 @_ZNSt6chrono3_V212steady_clock3nowEv() #27
  %execStartTime_ = getelementptr inbounds i8, ptr %this, i64 136
  store i64 %call, ptr %execStartTime_, align 8
  %call5 = tail call i64 @_ZN6hermes8oscompat15thread_cpu_timeEv() #27
  %execStartCPUTime_ = getelementptr inbounds i8, ptr %this, i64 144
  store i64 %call5, ptr %execStartCPUTime_, align 8
  %startNumVoluntaryContextSwitches_ = getelementptr inbounds i8, ptr %this, i64 152
  %startNumInvoluntaryContextSwitches_ = getelementptr inbounds i8, ptr %this, i64 160
  %call7 = tail call noundef zeroext i1 @_ZN6hermes8oscompat20num_context_switchesERlS1_(ptr noundef nonnull align 8 dereferenceable(8) %startNumVoluntaryContextSwitches_, ptr noundef nonnull align 8 dereferenceable(8) %startNumInvoluntaryContextSwitches_) #27
  store i8 1, ptr %execStartTimeRecorded_, align 1
  br label %if.end

if.end:                                           ; preds = %if.then, %land.lhs.true, %entry
  ret void
}